target datalayout = "e-m:e-p270:32:32-p271:32:32-p272:64:64-i64:64-i128:128-f80:128-n8:16:32:64-S128"
target triple = "x86_64-pc-linux-gnu"

%"struct.vcpkg::msg::MessageT.61" = type { i64 }
%"struct.vcpkg::msg::path_t" = type { i8 }
%"struct.vcpkg::StringView" = type { ptr, i64 }
%"struct.vcpkg::LineInfo" = type { i32, ptr }
%"struct.vcpkg::msg::TagArg" = type { %"struct.vcpkg::StringView" }

@.str.2 = private unnamed_addr constant [126 x i8] c"generated/home/dtcxzyw/WorkSpace/Projects/compilers/llvm-opt-benchmark/bench/vcpkg/vcpkg-tool/src/vcpkg/commands.ci-clean.cpp\00", align 1
@_ZN5vcpkg19msgClearingContentsE = external global %"struct.vcpkg::msg::MessageT.61", align 8
@_ZN5vcpkg3msgL4pathE = internal constant %"struct.vcpkg::msg::path_t" undef, align 1
@_ZN5vcpkg25msgSkipClearingInvalidDirE = external global %"struct.vcpkg::msg::MessageT.61", align 8

; Function Attrs: mustprogress nounwind uwtable
define linkonce_odr dso_local { ptr, i64 } @_ZNK5vcpkg3msg6path_taSINS_4PathEEENS0_6TagArgIS1_NSt11conditionalIXsr3std16is_constructibleINS_10StringViewET_EE5valueES6_S7_E4typeEEERKS7_(ptr noundef nonnull align 1 dereferenceable(1) %0, ptr noundef nonnull align 8 dereferenceable(32) %1) #4 comdat align 2 {
  %3 = alloca %"struct.vcpkg::msg::TagArg", align 8
  %4 = alloca ptr, align 8
  %5 = alloca ptr, align 8
  store ptr %0, ptr %4, align 8, !tbaa !109
  store ptr %1, ptr %5, align 8, !tbaa !20
  %6 = getelementptr inbounds nuw %"struct.vcpkg::msg::TagArg", ptr %3, i32 0, i32 0
  %7 = load ptr, ptr %5, align 8, !tbaa !20
  %8 = call { ptr, i64 } @_ZNK5vcpkg4PathcvNS_10StringViewEEv(ptr noundef nonnull align 8 dereferenceable(32) %7) #16
  %9 = getelementptr inbounds nuw { ptr, i64 }, ptr %6, i32 0, i32 0
  %10 = extractvalue { ptr, i64 } %8, 0
  store ptr %10, ptr %9, align 8
  %11 = getelementptr inbounds nuw { ptr, i64 }, ptr %6, i32 0, i32 1
  %12 = extractvalue { ptr, i64 } %8, 1
  store i64 %12, ptr %11, align 8
  %13 = getelementptr inbounds nuw %"struct.vcpkg::msg::TagArg", ptr %3, i32 0, i32 0
  %14 = load { ptr, i64 }, ptr %13, align 8
  ret { ptr, i64 } %14
}

; Function Attrs: mustprogress uwtable
define internal void @_ZN12_GLOBAL__N_115clear_directoryERKN5vcpkg10FilesystemERKNS0_4PathE(ptr noundef nonnull align 8 dereferenceable(8) %0, ptr noundef nonnull align 8 dereferenceable(32) %1) #0 {
  %3 = alloca ptr, align 8
  %4 = alloca ptr, align 8
  %5 = alloca %"struct.vcpkg::msg::MessageT.61", align 8
  %6 = alloca %"struct.vcpkg::msg::TagArg", align 8
  %7 = alloca %"struct.vcpkg::LineInfo", align 8
  %8 = alloca %"struct.vcpkg::msg::MessageT.61", align 8
  %9 = alloca %"struct.vcpkg::msg::TagArg", align 8
  store ptr %0, ptr %3, align 8, !tbaa !11
  store ptr %1, ptr %4, align 8, !tbaa !20
  %10 = load ptr, ptr %3, align 8, !tbaa !11
  %11 = load ptr, ptr %4, align 8, !tbaa !20
  %12 = load ptr, ptr %10, align 8, !tbaa !22
  %13 = getelementptr inbounds ptr, ptr %12, i64 13
  %14 = load ptr, ptr %13, align 8
  %15 = call noundef zeroext i1 %14(ptr noundef nonnull align 8 dereferenceable(8) %10, ptr noundef nonnull align 8 dereferenceable(32) %11)
  br i1 %15, label %16, label %38

16:                                               ; preds = %2
  call void @llvm.memcpy.p0.p0.i64(ptr align 8 %5, ptr align 8 @_ZN5vcpkg19msgClearingContentsE, i64 8, i1 false), !tbaa.struct !24
  %17 = load ptr, ptr %4, align 8, !tbaa !20
  %18 = call { ptr, i64 } @_ZNK5vcpkg3msg6path_taSINS_4PathEEENS0_6TagArgIS1_NSt11conditionalIXsr3std16is_constructibleINS_10StringViewET_EE5valueES6_S7_E4typeEEERKS7_(ptr noundef nonnull align 1 dereferenceable(1) @_ZN5vcpkg3msgL4pathE, ptr noundef nonnull align 8 dereferenceable(32) %17) #16
  %19 = getelementptr inbounds nuw %"struct.vcpkg::msg::TagArg", ptr %6, i32 0, i32 0
  %20 = getelementptr inbounds nuw { ptr, i64 }, ptr %19, i32 0, i32 0
  %21 = extractvalue { ptr, i64 } %18, 0
  store ptr %21, ptr %20, align 8
  %22 = getelementptr inbounds nuw { ptr, i64 }, ptr %19, i32 0, i32 1
  %23 = extractvalue { ptr, i64 } %18, 1
  store i64 %23, ptr %22, align 8
  %24 = getelementptr inbounds nuw %"struct.vcpkg::msg::MessageT.61", ptr %5, i32 0, i32 0
  %25 = load i64, ptr %24, align 8
  %26 = getelementptr inbounds nuw { ptr, i64 }, ptr %6, i32 0, i32 0
  %27 = load ptr, ptr %26, align 8
  %28 = getelementptr inbounds nuw { ptr, i64 }, ptr %6, i32 0, i32 1
  %29 = load i64, ptr %28, align 8
  call void @_ZN5vcpkg3msg7printlnIJNS0_6path_tEEJNS_10StringViewEEEEvNS0_8MessageTIJDpT_EEEDpNS0_6TagArgINS_8identityIS5_E4typeET0_EE(i64 %25, ptr %27, i64 %29)
  %30 = load ptr, ptr %3, align 8, !tbaa !11
  %31 = load ptr, ptr %4, align 8, !tbaa !20
  %32 = getelementptr inbounds nuw %"struct.vcpkg::LineInfo", ptr %7, i32 0, i32 0
  store i32 18, ptr %32, align 8, !tbaa !13
  %33 = getelementptr inbounds nuw %"struct.vcpkg::LineInfo", ptr %7, i32 0, i32 1
  store ptr @.str.2, ptr %33, align 8, !tbaa !17
  %34 = getelementptr inbounds nuw { i32, ptr }, ptr %7, i32 0, i32 0
  %35 = load i32, ptr %34, align 8
  %36 = getelementptr inbounds nuw { i32, ptr }, ptr %7, i32 0, i32 1
  %37 = load ptr, ptr %36, align 8
  call void @_ZNK5vcpkg10Filesystem17remove_all_insideERKNS_4PathENS_8LineInfoE(ptr noundef nonnull align 8 dereferenceable(8) %30, ptr noundef nonnull align 8 dereferenceable(32) %31, i32 %35, ptr %37)
  br label %52

38:                                               ; preds = %2
  call void @llvm.memcpy.p0.p0.i64(ptr align 8 %8, ptr align 8 @_ZN5vcpkg25msgSkipClearingInvalidDirE, i64 8, i1 false), !tbaa.struct !24
  %39 = load ptr, ptr %4, align 8, !tbaa !20
  %40 = call { ptr, i64 } @_ZNK5vcpkg3msg6path_taSINS_4PathEEENS0_6TagArgIS1_NSt11conditionalIXsr3std16is_constructibleINS_10StringViewET_EE5valueES6_S7_E4typeEEERKS7_(ptr noundef nonnull align 1 dereferenceable(1) @_ZN5vcpkg3msgL4pathE, ptr noundef nonnull align 8 dereferenceable(32) %39) #16
  %41 = getelementptr inbounds nuw %"struct.vcpkg::msg::TagArg", ptr %9, i32 0, i32 0
  %42 = getelementptr inbounds nuw { ptr, i64 }, ptr %41, i32 0, i32 0
  %43 = extractvalue { ptr, i64 } %40, 0
  store ptr %43, ptr %42, align 8
  %44 = getelementptr inbounds nuw { ptr, i64 }, ptr %41, i32 0, i32 1
  %45 = extractvalue { ptr, i64 } %40, 1
  store i64 %45, ptr %44, align 8
  %46 = getelementptr inbounds nuw %"struct.vcpkg::msg::MessageT.61", ptr %8, i32 0, i32 0
  %47 = load i64, ptr %46, align 8
  %48 = getelementptr inbounds nuw { ptr, i64 }, ptr %9, i32 0, i32 0
  %49 = load ptr, ptr %48, align 8
  %50 = getelementptr inbounds nuw { ptr, i64 }, ptr %9, i32 0, i32 1
  %51 = load i64, ptr %50, align 8
  call void @_ZN5vcpkg3msg7printlnIJNS0_6path_tEEJNS_10StringViewEEEEvNS0_8MessageTIJDpT_EEEDpNS0_6TagArgINS_8identityIS5_E4typeET0_EE(i64 %47, ptr %49, i64 %51)
  br label %52

52:                                               ; preds = %38, %16
  ret void
}