; Function Attrs: mustprogress uwtable
define internal fastcc void @_ZN12_GLOBAL__N_115clear_directoryERKN5vcpkg10FilesystemERKNS0_4PathE(ptr noundef nonnull align 8 dereferenceable(8) %0, ptr noundef nonnull align 8 dereferenceable(32) %1) unnamed_addr #4 {
  %3 = load ptr, ptr %0, align 8, !tbaa !30
  %4 = getelementptr inbounds nuw i8, ptr %3, i64 104
  %5 = load ptr, ptr %4, align 8
  %6 = tail call noundef zeroext i1 %5(ptr noundef nonnull align 8 dereferenceable(8) %0, ptr noundef nonnull align 8 dereferenceable(32) %1)
  br i1 %6, label %7, label %11

7:                                                ; preds = %2
  %.sroa.06.0.copyload = load i64, ptr @_ZN5vcpkg19msgClearingContentsE, align 8, !tbaa !32
  %8 = tail call { ptr, i64 } @_ZNK5vcpkg4PathcvNS_10StringViewEEv(ptr noundef nonnull align 8 dereferenceable(32) %1) #19
  %9 = extractvalue { ptr, i64 } %8, 0
  %10 = extractvalue { ptr, i64 } %8, 1
  tail call void @_ZN5vcpkg3msg7printlnIJNS0_6path_tEEJNS_10StringViewEEEEvNS0_8MessageTIJDpT_EEEDpNS0_6TagArgINS_8identityIS5_E4typeET0_EE(i64 %.sroa.06.0.copyload, ptr %9, i64 %10)
  tail call void @_ZNK5vcpkg10Filesystem17remove_all_insideERKNS_4PathENS_8LineInfoE(ptr noundef nonnull align 8 dereferenceable(8) %0, ptr noundef nonnull align 8 dereferenceable(32) %1, i32 18, ptr nonnull @.str.2)
  br label %15

11:                                               ; preds = %2
  %.sroa.01.0.copyload = load i64, ptr @_ZN5vcpkg25msgSkipClearingInvalidDirE, align 8, !tbaa !32
  %12 = tail call { ptr, i64 } @_ZNK5vcpkg4PathcvNS_10StringViewEEv(ptr noundef nonnull align 8 dereferenceable(32) %1) #19
  %13 = extractvalue { ptr, i64 } %12, 0
  %14 = extractvalue { ptr, i64 } %12, 1
  tail call void @_ZN5vcpkg3msg7printlnIJNS0_6path_tEEJNS_10StringViewEEEEvNS0_8MessageTIJDpT_EEEDpNS0_6TagArgINS_8identityIS5_E4typeET0_EE(i64 %.sroa.01.0.copyload, ptr %13, i64 %14)
  br label %15

15:                                               ; preds = %11, %7
  ret void
}